; Function Attrs: mustprogress nounwind uwtable
define hidden void @_ZN7Matcher20specialize_temp_nodeEP12MachTempNodeP8MachNodej(ptr nocapture noundef nonnull readonly align 8 dereferenceable(1008) %0, ptr nocapture noundef readonly %1, ptr noundef %2, i32 noundef %3) local_unnamed_addr #0 align 2 {
  %5 = load ptr, ptr %2, align 8
  %6 = getelementptr inbounds i8, ptr %5, i64 240
  %7 = load ptr, ptr %6, align 8
  %8 = tail call noundef i32 %7(ptr noundef nonnull align 8 dereferenceable(64) %2) #15
  %9 = icmp eq i32 %8, %3
  br i1 %9, label %10, label %19

10:                                               ; preds = %4
  %11 = getelementptr inbounds i8, ptr %2, i64 56
  %12 = load ptr, ptr %11, align 8
  %13 = load ptr, ptr %12, align 8
  %14 = load ptr, ptr %13, align 8
  %15 = getelementptr inbounds i8, ptr %14, i64 208
  %16 = load ptr, ptr %15, align 8
  %17 = tail call noundef ptr %16(ptr noundef nonnull align 8 dereferenceable(8) %13) #15
  %18 = getelementptr inbounds i8, ptr %1, i64 56
  br label %29

19:                                               ; preds = %4
  %20 = getelementptr inbounds i8, ptr %0, i64 16
  %21 = load ptr, ptr %20, align 8
  %22 = getelementptr inbounds i8, ptr %21, i64 132
  %23 = load i32, ptr %22, align 4
  %24 = tail call noundef i32 @_ZN7Matcher16vector_ideal_regEi(i32 noundef %23) #15
  %25 = getelementptr inbounds i8, ptr %1, i64 56
  %26 = load ptr, ptr %25, align 8
  %27 = load ptr, ptr %26, align 8
  %28 = tail call noundef ptr @_ZN7Matcher36pd_specialize_generic_vector_operandEP8MachOperjb(ptr noundef %27, i32 noundef %24, i1 noundef zeroext true) #15
  br label %29

29:                                               ; preds = %19, %10
  %.sink8 = phi ptr [ %25, %19 ], [ %18, %10 ]
  %.sink = phi ptr [ %28, %19 ], [ %17, %10 ]
  %30 = load ptr, ptr %.sink8, align 8
  store ptr %.sink, ptr %30, align 8
  ret void
}